; ModuleID = '58/302.c'
source_filename = "58/302.c"
target datalayout = "e-m:e-p270:32:32-p271:32:32-p272:64:64-i64:64-f80:128-n8:16:32:64-S128"
target triple = "x86_64-pc-linux-gnu"

@.str = private unnamed_addr constant [3 x i8] c"1\0A\00", align 1
@.str.1 = private unnamed_addr constant [3 x i8] c"0\0A\00", align 1

; Function Attrs: noinline nounwind uwtable
define dso_local i32 @f(i32 %0) #0 {
  %2 = alloca i32, align 4
  %3 = alloca i32, align 4
  %4 = alloca i32, align 4
  store i32 %0, i32* %2, align 4
  store i32 0, i32* %3, align 4
  br label %5

5:                                                ; preds = %14, %1
  %6 = load i32, i32* %3, align 4
  %7 = icmp sle i32 %6, 9
  br i1 %7, label %8, label %17

8:                                                ; preds = %5
  %9 = load i32, i32* %2, align 4
  %10 = load i32, i32* %3, align 4
  %11 = icmp eq i32 %9, %10
  br i1 %11, label %12, label %13

12:                                               ; preds = %8
  br label %17

13:                                               ; preds = %8
  br label %14

14:                                               ; preds = %13
  %15 = load i32, i32* %3, align 4
  %16 = add nsw i32 %15, 1
  store i32 %16, i32* %3, align 4
  br label %5

17:                                               ; preds = %12, %5
  %18 = load i32, i32* %3, align 4
  %19 = icmp sgt i32 %18, 9
  br i1 %19, label %20, label %21

20:                                               ; preds = %17
  store i32 0, i32* %4, align 4
  br label %22

21:                                               ; preds = %17
  store i32 1, i32* %4, align 4
  br label %22

22:                                               ; preds = %21, %20
  %23 = load i32, i32* %4, align 4
  ret i32 %23
}

; Function Attrs: noinline nounwind uwtable
define dso_local i32 @main() #0 {
  %1 = alloca i32, align 4
  %2 = alloca i32, align 4
  %3 = alloca i32, align 4
  %4 = alloca i32, align 4
  %5 = alloca i32, align 4
  %6 = alloca [80 x i8], align 16
  %7 = alloca [5 x i8], align 1
  store i32 0, i32* %1, align 4
  %8 = getelementptr inbounds [5 x i8], [5 x i8]* %7, i64 0, i64 0
  %9 = call i32 (i8*, ...) bitcast (i32 (...)* @gets to i32 (i8*, ...)*)(i8* %8)
  %10 = getelementptr inbounds [5 x i8], [5 x i8]* %7, i64 0, i64 0
  %11 = call i32 @atoi(i8* %10) #3
  store i32 %11, i32* %2, align 4
  store i32 0, i32* %4, align 4
  br label %12

12:                                               ; preds = %118, %0
  %13 = load i32, i32* %4, align 4
  %14 = load i32, i32* %2, align 4
  %15 = icmp slt i32 %13, %14
  br i1 %15, label %16, label %121

16:                                               ; preds = %12
  %17 = getelementptr inbounds [80 x i8], [80 x i8]* %6, i64 0, i64 0
  %18 = call i32 (i8*, ...) bitcast (i32 (...)* @gets to i32 (i8*, ...)*)(i8* %17)
  %19 = getelementptr inbounds [80 x i8], [80 x i8]* %6, i64 0, i64 0
  %20 = call i64 @strlen(i8* %19) #3
  %21 = trunc i64 %20 to i32
  store i32 %21, i32* %5, align 4
  %22 = getelementptr inbounds [80 x i8], [80 x i8]* %6, i64 0, i64 0
  %23 = load i8, i8* %22, align 16
  %24 = sext i8 %23 to i32
  %25 = icmp eq i32 %24, 95
  br i1 %25, label %46, label %26

26:                                               ; preds = %16
  %27 = getelementptr inbounds [80 x i8], [80 x i8]* %6, i64 0, i64 0
  %28 = load i8, i8* %27, align 16
  %29 = sext i8 %28 to i32
  %30 = icmp sge i32 %29, 65
  br i1 %30, label %31, label %36

31:                                               ; preds = %26
  %32 = getelementptr inbounds [80 x i8], [80 x i8]* %6, i64 0, i64 0
  %33 = load i8, i8* %32, align 16
  %34 = sext i8 %33 to i32
  %35 = icmp sle i32 %34, 90
  br i1 %35, label %46, label %36

36:                                               ; preds = %31, %26
  %37 = getelementptr inbounds [80 x i8], [80 x i8]* %6, i64 0, i64 0
  %38 = load i8, i8* %37, align 16
  %39 = sext i8 %38 to i32
  %40 = icmp sge i32 %39, 97
  br i1 %40, label %41, label %115

41:                                               ; preds = %36
  %42 = getelementptr inbounds [80 x i8], [80 x i8]* %6, i64 0, i64 0
  %43 = load i8, i8* %42, align 16
  %44 = sext i8 %43 to i32
  %45 = icmp sle i32 %44, 122
  br i1 %45, label %46, label %115

46:                                               ; preds = %41, %31, %16
  store i32 1, i32* %3, align 4
  br label %47

47:                                               ; preds = %98, %46
  %48 = load i32, i32* %3, align 4
  %49 = load i32, i32* %5, align 4
  %50 = icmp slt i32 %48, %49
  br i1 %50, label %51, label %101

51:                                               ; preds = %47
  %52 = load i32, i32* %3, align 4
  %53 = sext i32 %52 to i64
  %54 = getelementptr inbounds [80 x i8], [80 x i8]* %6, i64 0, i64 %53
  %55 = load i8, i8* %54, align 1
  %56 = sext i8 %55 to i32
  %57 = icmp eq i32 %56, 95
  br i1 %57, label %86, label %58

58:                                               ; preds = %51
  %59 = load i32, i32* %3, align 4
  %60 = sext i32 %59 to i64
  %61 = getelementptr inbounds [80 x i8], [80 x i8]* %6, i64 0, i64 %60
  %62 = load i8, i8* %61, align 1
  %63 = sext i8 %62 to i32
  %64 = icmp sge i32 %63, 65
  br i1 %64, label %65, label %72

65:                                               ; preds = %58
  %66 = load i32, i32* %3, align 4
  %67 = sext i32 %66 to i64
  %68 = getelementptr inbounds [80 x i8], [80 x i8]* %6, i64 0, i64 %67
  %69 = load i8, i8* %68, align 1
  %70 = sext i8 %69 to i32
  %71 = icmp sle i32 %70, 90
  br i1 %71, label %86, label %72

72:                                               ; preds = %65, %58
  %73 = load i32, i32* %3, align 4
  %74 = sext i32 %73 to i64
  %75 = getelementptr inbounds [80 x i8], [80 x i8]* %6, i64 0, i64 %74
  %76 = load i8, i8* %75, align 1
  %77 = sext i8 %76 to i32
  %78 = icmp sge i32 %77, 97
  br i1 %78, label %79, label %87

79:                                               ; preds = %72
  %80 = load i32, i32* %3, align 4
  %81 = sext i32 %80 to i64
  %82 = getelementptr inbounds [80 x i8], [80 x i8]* %6, i64 0, i64 %81
  %83 = load i8, i8* %82, align 1
  %84 = sext i8 %83 to i32
  %85 = icmp sle i32 %84, 122
  br i1 %85, label %86, label %87

86:                                               ; preds = %79, %65, %51
  br label %98

87:                                               ; preds = %79, %72
  %88 = load i32, i32* %3, align 4
  %89 = sext i32 %88 to i64
  %90 = getelementptr inbounds [80 x i8], [80 x i8]* %6, i64 0, i64 %89
  %91 = load i8, i8* %90, align 1
  %92 = sext i8 %91 to i32
  %93 = sub nsw i32 %92, 48
  %94 = call i32 @f(i32 %93)
  %95 = icmp eq i32 %94, 1
  br i1 %95, label %96, label %97

96:                                               ; preds = %87
  br label %98

97:                                               ; preds = %87
  br label %101

98:                                               ; preds = %96, %86
  %99 = load i32, i32* %3, align 4
  %100 = add nsw i32 %99, 1
  store i32 %100, i32* %3, align 4
  br label %47

101:                                              ; preds = %97, %47
  %102 = load i32, i32* %3, align 4
  %103 = load i32, i32* %5, align 4
  %104 = icmp eq i32 %102, %103
  br i1 %104, label %110, label %105

105:                                              ; preds = %101
  %106 = load i32, i32* %3, align 4
  %107 = load i32, i32* %5, align 4
  %108 = add nsw i32 %107, 1
  %109 = icmp eq i32 %106, %108
  br i1 %109, label %110, label %112

110:                                              ; preds = %105, %101
  %111 = call i32 (i8*, ...) @printf(i8* getelementptr inbounds ([3 x i8], [3 x i8]* @.str, i64 0, i64 0))
  br label %114

112:                                              ; preds = %105
  %113 = call i32 (i8*, ...) @printf(i8* getelementptr inbounds ([3 x i8], [3 x i8]* @.str.1, i64 0, i64 0))
  br label %114

114:                                              ; preds = %112, %110
  br label %117

115:                                              ; preds = %41, %36
  %116 = call i32 (i8*, ...) @printf(i8* getelementptr inbounds ([3 x i8], [3 x i8]* @.str.1, i64 0, i64 0))
  br label %117

117:                                              ; preds = %115, %114
  br label %118

118:                                              ; preds = %117
  %119 = load i32, i32* %4, align 4
  %120 = add nsw i32 %119, 1
  store i32 %120, i32* %4, align 4
  br label %12

121:                                              ; preds = %12
  %122 = call i32 @getchar()
  %123 = call i32 @getchar()
  %124 = call i32 @getchar()
  %125 = call i32 @getchar()
  %126 = load i32, i32* %1, align 4
  ret i32 %126
}

declare dso_local i32 @gets(...) #1

; Function Attrs: nounwind readonly
declare dso_local i32 @atoi(i8*) #2

; Function Attrs: nounwind readonly
declare dso_local i64 @strlen(i8*) #2

declare dso_local i32 @printf(i8*, ...) #1

declare dso_local i32 @getchar() #1


!llvm.module.flags = !{!0}
!llvm.ident = !{!1}

!0 = !{i32 1, !"wchar_size", i32 4}
!1 = !{!"clang version 10.0.0-4ubuntu1 "}
